; ModuleID = '45/1100.c'
source_filename = "45/1100.c"
target datalayout = "e-m:e-p270:32:32-p271:32:32-p272:64:64-i64:64-f80:128-n8:16:32:64-S128"
target triple = "x86_64-pc-linux-gnu"

@.str = private unnamed_addr constant [7 x i8] c"%s  %s\00", align 1
@.str.1 = private unnamed_addr constant [3 x i8] c"%d\00", align 1

; Function Attrs: noinline nounwind uwtable
define dso_local i32 @main() #0 {
  %1 = alloca i32, align 4
  %2 = alloca i32, align 4
  %3 = alloca i32, align 4
  %4 = alloca i32, align 4
  %5 = alloca [50 x i8], align 16
  %6 = alloca [50 x i8], align 16
  %7 = alloca [50 x i8], align 16
  store i32 0, i32* %1, align 4
  store i32 0, i32* %4, align 4
  %8 = getelementptr inbounds [50 x i8], [50 x i8]* %5, i64 0, i64 0
  %9 = getelementptr inbounds [50 x i8], [50 x i8]* %6, i64 0, i64 0
  %10 = call i32 (i8*, ...) @__isoc99_scanf(i8* getelementptr inbounds ([7 x i8], [7 x i8]* @.str, i64 0, i64 0), i8* %8, i8* %9)
  br label %11

11:                                               ; preds = %18, %0
  %12 = load i32, i32* %4, align 4
  %13 = add nsw i32 %12, 1
  store i32 %13, i32* %4, align 4
  %14 = sext i32 %12 to i64
  %15 = getelementptr inbounds [50 x i8], [50 x i8]* %5, i64 0, i64 %14
  %16 = load i8, i8* %15, align 1
  %17 = icmp ne i8 %16, 0
  br i1 %17, label %18, label %19

18:                                               ; preds = %11
  br label %11

19:                                               ; preds = %11
  %20 = load i32, i32* %4, align 4
  %21 = sub nsw i32 %20, 1
  store i32 %21, i32* %4, align 4
  store i32 0, i32* %2, align 4
  br label %22

22:                                               ; preds = %58, %19
  %23 = load i32, i32* %2, align 4
  %24 = load i32, i32* %4, align 4
  %25 = add nsw i32 %23, %24
  %26 = sext i32 %25 to i64
  %27 = getelementptr inbounds [50 x i8], [50 x i8]* %6, i64 0, i64 %26
  %28 = load i8, i8* %27, align 1
  %29 = icmp ne i8 %28, 0
  br i1 %29, label %30, label %61

30:                                               ; preds = %22
  store i32 0, i32* %3, align 4
  br label %31

31:                                               ; preds = %45, %30
  %32 = load i32, i32* %3, align 4
  %33 = load i32, i32* %4, align 4
  %34 = icmp slt i32 %32, %33
  br i1 %34, label %35, label %48

35:                                               ; preds = %31
  %36 = load i32, i32* %2, align 4
  %37 = load i32, i32* %3, align 4
  %38 = add nsw i32 %36, %37
  %39 = sext i32 %38 to i64
  %40 = getelementptr inbounds [50 x i8], [50 x i8]* %6, i64 0, i64 %39
  %41 = load i8, i8* %40, align 1
  %42 = load i32, i32* %3, align 4
  %43 = sext i32 %42 to i64
  %44 = getelementptr inbounds [50 x i8], [50 x i8]* %7, i64 0, i64 %43
  store i8 %41, i8* %44, align 1
  br label %45

45:                                               ; preds = %35
  %46 = load i32, i32* %3, align 4
  %47 = add nsw i32 %46, 1
  store i32 %47, i32* %3, align 4
  br label %31

48:                                               ; preds = %31
  %49 = load i32, i32* %3, align 4
  %50 = sext i32 %49 to i64
  %51 = getelementptr inbounds [50 x i8], [50 x i8]* %7, i64 0, i64 %50
  store i8 0, i8* %51, align 1
  %52 = getelementptr inbounds [50 x i8], [50 x i8]* %7, i64 0, i64 0
  %53 = getelementptr inbounds [50 x i8], [50 x i8]* %5, i64 0, i64 0
  %54 = call i32 @strcmp(i8* %52, i8* %53) #3
  %55 = icmp eq i32 %54, 0
  br i1 %55, label %56, label %57

56:                                               ; preds = %48
  br label %61

57:                                               ; preds = %48
  br label %58

58:                                               ; preds = %57
  %59 = load i32, i32* %2, align 4
  %60 = add nsw i32 %59, 1
  store i32 %60, i32* %2, align 4
  br label %22

61:                                               ; preds = %56, %22
  %62 = load i32, i32* %2, align 4
  %63 = call i32 (i8*, ...) @printf(i8* getelementptr inbounds ([3 x i8], [3 x i8]* @.str.1, i64 0, i64 0), i32 %62)
  %64 = load i32, i32* %1, align 4
  ret i32 %64
}

declare dso_local i32 @__isoc99_scanf(i8*, ...) #1

; Function Attrs: nounwind readonly
declare dso_local i32 @strcmp(i8*, i8*) #2

declare dso_local i32 @printf(i8*, ...) #1


!llvm.module.flags = !{!0}
!llvm.ident = !{!1}

!0 = !{i32 1, !"wchar_size", i32 4}
!1 = !{!"clang version 10.0.0-4ubuntu1 "}
