; ModuleID = 'source-C-CXX/44/1100.c'
source_filename = "source-C-CXX/44/1100.c"
target datalayout = "e-m:e-p270:32:32-p271:32:32-p272:64:64-i64:64-f80:128-n8:16:32:64-S128"
target triple = "x86_64-pc-linux-gnu"

@.str = private unnamed_addr constant [7 x i8] c"%s  %s\00", align 1
@.str.1 = private unnamed_addr constant [3 x i8] c"%d\00", align 1

; Function Attrs: nofree nounwind sspstrong uwtable
define dso_local i32 @main() local_unnamed_addr #0 {
  %1 = alloca [50 x i8], align 16
  %2 = alloca [50 x i8], align 16
  %3 = alloca [50 x i8], align 16
  %4 = getelementptr inbounds [50 x i8], [50 x i8]* %3, i64 0, i64 0
  %5 = getelementptr inbounds [50 x i8], [50 x i8]* %1, i64 0, i64 0
  call void @llvm.lifetime.start.p0i8(i64 50, i8* nonnull %5) #5
  %6 = getelementptr inbounds [50 x i8], [50 x i8]* %2, i64 0, i64 0
  call void @llvm.lifetime.start.p0i8(i64 50, i8* nonnull %6) #5
  %7 = getelementptr inbounds [50 x i8], [50 x i8]* %3, i64 0, i64 0
  call void @llvm.lifetime.start.p0i8(i64 50, i8* nonnull %7) #5
  %8 = call i32 (i8*, ...) @__isoc99_scanf(i8* getelementptr inbounds ([7 x i8], [7 x i8]* @.str, i64 0, i64 0), i8* nonnull %5, i8* nonnull %6)
  br label %9

9:                                                ; preds = %9, %0
  %10 = phi i64 [ %11, %9 ], [ 0, %0 ]
  %11 = add nuw i64 %10, 1
  %12 = getelementptr inbounds [50 x i8], [50 x i8]* %1, i64 0, i64 %10
  %13 = load i8, i8* %12, align 1, !tbaa !5
  %14 = icmp eq i8 %13, 0
  br i1 %14, label %15, label %9, !llvm.loop !8

15:                                               ; preds = %9
  %16 = and i64 %10, 4294967295
  %17 = getelementptr inbounds [50 x i8], [50 x i8]* %2, i64 0, i64 %16
  %18 = load i8, i8* %17, align 1, !tbaa !5
  %19 = icmp eq i8 %18, 0
  br i1 %19, label %54, label %20

20:                                               ; preds = %15
  %21 = trunc i64 %10 to i32
  %22 = icmp eq i32 %21, 0
  br i1 %22, label %39, label %23

23:                                               ; preds = %20
  %24 = and i64 %10, 4294967295
  %25 = getelementptr inbounds [50 x i8], [50 x i8]* %3, i64 0, i64 %24
  br label %26

26:                                               ; preds = %23, %32
  %27 = phi i64 [ 0, %23 ], [ %33, %32 ]
  %28 = phi i32 [ 0, %23 ], [ %34, %32 ]
  %29 = getelementptr [50 x i8], [50 x i8]* %2, i64 0, i64 %27
  call void @llvm.memcpy.p0i8.p0i8.i64(i8* nonnull align 16 %4, i8* align 1 %29, i64 %16, i1 false)
  store i8 0, i8* %25, align 1, !tbaa !5
  %30 = call i32 @strcmp(i8* noundef nonnull %7, i8* noundef nonnull %5) #6
  %31 = icmp eq i32 %30, 0
  br i1 %31, label %52, label %32

32:                                               ; preds = %26
  %33 = add nuw i64 %27, 1
  %34 = add nuw nsw i32 %28, 1
  %35 = add nuw nsw i64 %33, %16
  %36 = getelementptr inbounds [50 x i8], [50 x i8]* %2, i64 0, i64 %35
  %37 = load i8, i8* %36, align 1, !tbaa !5
  %38 = icmp eq i8 %37, 0
  br i1 %38, label %54, label %26, !llvm.loop !10

39:                                               ; preds = %20, %44
  %40 = phi i64 [ %45, %44 ], [ 0, %20 ]
  %41 = phi i32 [ %46, %44 ], [ 0, %20 ]
  store i8 0, i8* %7, align 16, !tbaa !5
  %42 = call i32 @strcmp(i8* noundef nonnull %7, i8* noundef nonnull %5) #6
  %43 = icmp eq i32 %42, 0
  br i1 %43, label %50, label %44

44:                                               ; preds = %39
  %45 = add nuw i64 %40, 1
  %46 = add nuw nsw i32 %41, 1
  %47 = getelementptr inbounds [50 x i8], [50 x i8]* %2, i64 0, i64 %45
  %48 = load i8, i8* %47, align 1, !tbaa !5
  %49 = icmp eq i8 %48, 0
  br i1 %49, label %54, label %39, !llvm.loop !10

50:                                               ; preds = %39
  %51 = trunc i64 %40 to i32
  br label %54

52:                                               ; preds = %26
  %53 = trunc i64 %27 to i32
  br label %54

54:                                               ; preds = %32, %44, %52, %50, %15
  %55 = phi i32 [ 0, %15 ], [ %51, %50 ], [ %53, %52 ], [ %46, %44 ], [ %34, %32 ]
  %56 = call i32 (i8*, ...) @printf(i8* nonnull dereferenceable(1) getelementptr inbounds ([3 x i8], [3 x i8]* @.str.1, i64 0, i64 0), i32 %55)
  call void @llvm.lifetime.end.p0i8(i64 50, i8* nonnull %7) #5
  call void @llvm.lifetime.end.p0i8(i64 50, i8* nonnull %6) #5
  call void @llvm.lifetime.end.p0i8(i64 50, i8* nonnull %5) #5
  ret i32 0
}

; Function Attrs: argmemonly mustprogress nofree nosync nounwind willreturn
declare void @llvm.lifetime.start.p0i8(i64 immarg, i8* nocapture) #1

; Function Attrs: nofree nounwind
declare noundef i32 @__isoc99_scanf(i8* nocapture noundef readonly, ...) local_unnamed_addr #2

; Function Attrs: argmemonly mustprogress nofree nounwind readonly willreturn
declare i32 @strcmp(i8* nocapture, i8* nocapture) local_unnamed_addr #3

; Function Attrs: nofree nounwind
declare noundef i32 @printf(i8* nocapture noundef readonly, ...) local_unnamed_addr #2

; Function Attrs: argmemonly mustprogress nofree nosync nounwind willreturn
declare void @llvm.lifetime.end.p0i8(i64 immarg, i8* nocapture) #1

; Function Attrs: argmemonly nofree nounwind willreturn
declare void @llvm.memcpy.p0i8.p0i8.i64(i8* noalias nocapture writeonly, i8* noalias nocapture readonly, i64, i1 immarg) #4


!llvm.module.flags = !{!0, !1, !2, !3}
!llvm.ident = !{!4}

!0 = !{i32 1, !"wchar_size", i32 4}
!1 = !{i32 7, !"PIC Level", i32 2}
!2 = !{i32 7, !"PIE Level", i32 2}
!3 = !{i32 7, !"uwtable", i32 1}
!4 = !{!"clang version 13.0.0"}
!5 = !{!6, !6, i64 0}
!6 = !{!"omnipotent char", !7, i64 0}
!7 = !{!"Simple C/C++ TBAA"}
!8 = distinct !{!8, !9}
!9 = !{!"llvm.loop.mustprogress"}
!10 = distinct !{!10, !9}
